; Function Attrs: mustprogress uwtable
define dso_local void @_ZN7V3Graph23removeRedundantEdgesSumEPFbPK11V3GraphEdgeE(ptr noundef nonnull align 8 dereferenceable(24) %0, ptr noundef %1) #3 align 2 {
  %3 = alloca %class.GraphRemoveRedundant, align 8
  store ptr %0, ptr %3, align 8
  %4 = getelementptr inbounds i8, ptr %3, i64 8
  store ptr %1, ptr %4, align 8
  %5 = getelementptr inbounds i8, ptr %3, i64 16
  store i8 1, ptr %5, align 8
  %6 = getelementptr inbounds i8, ptr %0, i64 8
  %.sroa.0.021.i.i = load ptr, ptr %6, align 8
  %.not22.i.i = icmp eq ptr %.sroa.0.021.i.i, null
  br i1 %.not22.i.i, label %_ZN20GraphRemoveRedundantC2EP7V3GraphPFbPK11V3GraphEdgeEb.exit, label %.lr.ph.i.i

.lr.ph.i.i:                                       ; preds = %2, %.lr.ph.i.i
  %.sroa.0.023.i.i = phi ptr [ %.sroa.0.0.i.i, %.lr.ph.i.i ], [ %.sroa.0.021.i.i, %2 ]
  %7 = getelementptr inbounds i8, ptr %.sroa.0.023.i.i, i64 8
  %8 = load ptr, ptr %7, align 8
  %.not20.i.i = icmp eq ptr %8, null
  %9 = select i1 %.not20.i.i, ptr %.sroa.0.023.i.i, ptr %8
  call void @llvm.prefetch.p0(ptr nonnull %9, i32 1, i32 3, i32 1)
  call void @_ZN20GraphRemoveRedundant13vertexIterateEP13V3GraphVertex(ptr noundef nonnull align 8 dereferenceable(24) %3, ptr noundef nonnull %.sroa.0.023.i.i)
  %.sroa.0.0.i.i = load ptr, ptr %7, align 8
  %.not.i.i = icmp eq ptr %.sroa.0.0.i.i, null
  br i1 %.not.i.i, label %_ZN20GraphRemoveRedundantC2EP7V3GraphPFbPK11V3GraphEdgeEb.exit, label %.lr.ph.i.i

_ZN20GraphRemoveRedundantC2EP7V3GraphPFbPK11V3GraphEdgeEb.exit: ; preds = %.lr.ph.i.i, %2
  ret void
}